; Function Attrs: mustprogress nofree norecurse nosync nounwind willreturn memory(argmem: read) uwtable
define dso_local noundef zeroext i1 @_ZN4llvm13CSEMIRBuilder23checkCopyToDefsPossibleENS_8ArrayRefINS_5DstOpEEE(ptr nocapture noundef nonnull readnone align 8 dereferenceable(88) %0, ptr readonly %1, i64 %2) local_unnamed_addr #5 align 2 {
  %4 = icmp eq i64 %2, 1
  br i1 %4, label %44, label %5

5:                                                ; preds = %3
  %.idx1.i = shl nsw i64 %2, 4
  %6 = getelementptr inbounds i8, ptr %1, i64 %.idx1.i
  %7 = ashr i64 %2, 2
  %8 = icmp sgt i64 %7, 0
  br i1 %8, label %.lr.ph.preheader.i.i.i.i.i, label %._crit_edge.i.i.i.i.i

.lr.ph.preheader.i.i.i.i.i:                       ; preds = %5
  %9 = and i64 %.idx1.i, -64
  %scevgep.i.i.i.i.i = getelementptr i8, ptr %1, i64 %9
  br label %.lr.ph.i.i.i.i.i

.lr.ph.i.i.i.i.i:                                 ; preds = %21, %.lr.ph.preheader.i.i.i.i.i
  %.050.i.i.i.i.i = phi i64 [ %23, %21 ], [ %7, %.lr.ph.preheader.i.i.i.i.i ]
  %.02949.i.i.i.i.i = phi ptr [ %22, %21 ], [ %1, %.lr.ph.preheader.i.i.i.i.i ]
  %10 = getelementptr i8, ptr %.02949.i.i.i.i.i, i64 8
  %.029.val.i.i.i.i.i = load i32, ptr %10, align 8
  %11 = and i32 %.029.val.i.i.i.i.i, -3
  %.not35.i.i.i.i.i = icmp eq i32 %11, 0
  br i1 %.not35.i.i.i.i.i, label %12, label %"_ZN4llvm6all_ofIRNS_8ArrayRefINS_5DstOpEEEZNS_13CSEMIRBuilder23checkCopyToDefsPossibleES3_E3$_0EEbOT_T0_.exit"

12:                                               ; preds = %.lr.ph.i.i.i.i.i
  %13 = getelementptr i8, ptr %.02949.i.i.i.i.i, i64 24
  %.val.i.i.i.i.i = load i32, ptr %13, align 8
  %14 = and i32 %.val.i.i.i.i.i, -3
  %.not36.i.i.i.i.i = icmp eq i32 %14, 0
  br i1 %.not36.i.i.i.i.i, label %15, label %.loopexit.split.loop.exit40.i.i.i.i.i

15:                                               ; preds = %12
  %16 = getelementptr i8, ptr %.02949.i.i.i.i.i, i64 40
  %.val30.i.i.i.i.i = load i32, ptr %16, align 8
  %17 = and i32 %.val30.i.i.i.i.i, -3
  %.not37.i.i.i.i.i = icmp eq i32 %17, 0
  br i1 %.not37.i.i.i.i.i, label %18, label %.loopexit.split.loop.exit42.i.i.i.i.i

18:                                               ; preds = %15
  %19 = getelementptr i8, ptr %.02949.i.i.i.i.i, i64 56
  %.val31.i.i.i.i.i = load i32, ptr %19, align 8
  %20 = and i32 %.val31.i.i.i.i.i, -3
  %.not38.i.i.i.i.i = icmp eq i32 %20, 0
  br i1 %.not38.i.i.i.i.i, label %21, label %.loopexit.split.loop.exit44.i.i.i.i.i

21:                                               ; preds = %18
  %22 = getelementptr inbounds i8, ptr %.02949.i.i.i.i.i, i64 64
  %23 = add nsw i64 %.050.i.i.i.i.i, -1
  %24 = icmp sgt i64 %.050.i.i.i.i.i, 1
  br i1 %24, label %.lr.ph.i.i.i.i.i, label %._crit_edge.loopexit.i.i.i.i.i, !llvm.loop !8

._crit_edge.loopexit.i.i.i.i.i:                   ; preds = %21
  %25 = and i64 %2, 3
  br label %._crit_edge.i.i.i.i.i

._crit_edge.i.i.i.i.i:                            ; preds = %._crit_edge.loopexit.i.i.i.i.i, %5
  %.pre-phi56.i.i.i.i.i = phi i64 [ %25, %._crit_edge.loopexit.i.i.i.i.i ], [ %2, %5 ]
  %.029.lcssa.i.i.i.i.i = phi ptr [ %scevgep.i.i.i.i.i, %._crit_edge.loopexit.i.i.i.i.i ], [ %1, %5 ]
  switch i64 %.pre-phi56.i.i.i.i.i, label %39 [
    i64 3, label %26
    i64 2, label %31
    i64 1, label %36
  ]

26:                                               ; preds = %._crit_edge.i.i.i.i.i
  %27 = getelementptr i8, ptr %.029.lcssa.i.i.i.i.i, i64 8
  %.029.val32.i.i.i.i.i = load i32, ptr %27, align 8
  %28 = and i32 %.029.val32.i.i.i.i.i, -3
  %.not.i.i.i.i.i = icmp eq i32 %28, 0
  br i1 %.not.i.i.i.i.i, label %29, label %"_ZN4llvm6all_ofIRNS_8ArrayRefINS_5DstOpEEEZNS_13CSEMIRBuilder23checkCopyToDefsPossibleES3_E3$_0EEbOT_T0_.exit"

29:                                               ; preds = %26
  %30 = getelementptr inbounds i8, ptr %.029.lcssa.i.i.i.i.i, i64 16
  br label %31

31:                                               ; preds = %29, %._crit_edge.i.i.i.i.i
  %.1.i.i.i.i.i = phi ptr [ %.029.lcssa.i.i.i.i.i, %._crit_edge.i.i.i.i.i ], [ %30, %29 ]
  %32 = getelementptr i8, ptr %.1.i.i.i.i.i, i64 8
  %.1.val.i.i.i.i.i = load i32, ptr %32, align 8
  %33 = and i32 %.1.val.i.i.i.i.i, -3
  %.not33.i.i.i.i.i = icmp eq i32 %33, 0
  br i1 %.not33.i.i.i.i.i, label %34, label %"_ZN4llvm6all_ofIRNS_8ArrayRefINS_5DstOpEEEZNS_13CSEMIRBuilder23checkCopyToDefsPossibleES3_E3$_0EEbOT_T0_.exit"

34:                                               ; preds = %31
  %35 = getelementptr inbounds i8, ptr %.1.i.i.i.i.i, i64 16
  br label %36

36:                                               ; preds = %34, %._crit_edge.i.i.i.i.i
  %.2.i.i.i.i.i = phi ptr [ %.029.lcssa.i.i.i.i.i, %._crit_edge.i.i.i.i.i ], [ %35, %34 ]
  %37 = getelementptr i8, ptr %.2.i.i.i.i.i, i64 8
  %.2.val.i.i.i.i.i = load i32, ptr %37, align 8
  %38 = and i32 %.2.val.i.i.i.i.i, -3
  %.not34.i.i.i.i.i = icmp eq i32 %38, 0
  br i1 %.not34.i.i.i.i.i, label %39, label %"_ZN4llvm6all_ofIRNS_8ArrayRefINS_5DstOpEEEZNS_13CSEMIRBuilder23checkCopyToDefsPossibleES3_E3$_0EEbOT_T0_.exit"

39:                                               ; preds = %36, %._crit_edge.i.i.i.i.i
  br label %"_ZN4llvm6all_ofIRNS_8ArrayRefINS_5DstOpEEEZNS_13CSEMIRBuilder23checkCopyToDefsPossibleES3_E3$_0EEbOT_T0_.exit"

.loopexit.split.loop.exit40.i.i.i.i.i:            ; preds = %12
  %40 = getelementptr inbounds i8, ptr %.02949.i.i.i.i.i, i64 16
  br label %"_ZN4llvm6all_ofIRNS_8ArrayRefINS_5DstOpEEEZNS_13CSEMIRBuilder23checkCopyToDefsPossibleES3_E3$_0EEbOT_T0_.exit"

.loopexit.split.loop.exit42.i.i.i.i.i:            ; preds = %15
  %41 = getelementptr inbounds i8, ptr %.02949.i.i.i.i.i, i64 32
  br label %"_ZN4llvm6all_ofIRNS_8ArrayRefINS_5DstOpEEEZNS_13CSEMIRBuilder23checkCopyToDefsPossibleES3_E3$_0EEbOT_T0_.exit"

.loopexit.split.loop.exit44.i.i.i.i.i:            ; preds = %18
  %42 = getelementptr inbounds i8, ptr %.02949.i.i.i.i.i, i64 48
  br label %"_ZN4llvm6all_ofIRNS_8ArrayRefINS_5DstOpEEEZNS_13CSEMIRBuilder23checkCopyToDefsPossibleES3_E3$_0EEbOT_T0_.exit"

"_ZN4llvm6all_ofIRNS_8ArrayRefINS_5DstOpEEEZNS_13CSEMIRBuilder23checkCopyToDefsPossibleES3_E3$_0EEbOT_T0_.exit": ; preds = %.lr.ph.i.i.i.i.i, %26, %31, %36, %39, %.loopexit.split.loop.exit40.i.i.i.i.i, %.loopexit.split.loop.exit42.i.i.i.i.i, %.loopexit.split.loop.exit44.i.i.i.i.i
  %.028.i.i.i.i.i = phi ptr [ %6, %39 ], [ %.029.lcssa.i.i.i.i.i, %26 ], [ %.1.i.i.i.i.i, %31 ], [ %.2.i.i.i.i.i, %36 ], [ %40, %.loopexit.split.loop.exit40.i.i.i.i.i ], [ %41, %.loopexit.split.loop.exit42.i.i.i.i.i ], [ %42, %.loopexit.split.loop.exit44.i.i.i.i.i ], [ %.02949.i.i.i.i.i, %.lr.ph.i.i.i.i.i ]
  %43 = icmp eq ptr %6, %.028.i.i.i.i.i
  br label %44

44:                                               ; preds = %3, %"_ZN4llvm6all_ofIRNS_8ArrayRefINS_5DstOpEEEZNS_13CSEMIRBuilder23checkCopyToDefsPossibleES3_E3$_0EEbOT_T0_.exit"
  %.0 = phi i1 [ %43, %"_ZN4llvm6all_ofIRNS_8ArrayRefINS_5DstOpEEEZNS_13CSEMIRBuilder23checkCopyToDefsPossibleES3_E3$_0EEbOT_T0_.exit" ], [ true, %3 ]
  ret i1 %.0
}